target datalayout = "e-m:e-p270:32:32-p271:32:32-p272:64:64-i64:64-i128:128-f80:128-n8:16:32:64-S128"
target triple = "x86_64-pc-linux-gnu"

%struct.darktable_t = type { %struct.dt_codepath_t, i32, i32, ptr, ptr, ptr, ptr, ptr, ptr, ptr, ptr, ptr, ptr, ptr, ptr, ptr, ptr, ptr, ptr, ptr, ptr, ptr, ptr, ptr, ptr, ptr, ptr, ptr, ptr, ptr, [64 x %struct.dt_pthread_mutex_t], %struct.dt_pthread_mutex_t, %struct.dt_pthread_mutex_t, %struct.dt_pthread_mutex_t, %struct.dt_pthread_mutex_t, %struct.dt_pthread_mutex_t, ptr, ptr, ptr, ptr, ptr, ptr, ptr, ptr, ptr, ptr, ptr, ptr, ptr, %struct.dt_lua_state_t, ptr, double, ptr, i32, [47 x i32], i32, i32, ptr, ptr, %struct.dt_sys_resources_t, %struct.dt_backthumb_t, %struct.dt_gimp_t }
%struct.dt_codepath_t = type { i8, [3 x i8] }
%struct.dt_pthread_mutex_t = type { %union.pthread_mutex_t }
%union.pthread_mutex_t = type { %struct.__pthread_mutex_s }
%struct.__pthread_mutex_s = type { i32, i32, i32, i32, i32, i16, i16, %struct.__pthread_internal_list }
%struct.__pthread_internal_list = type { ptr, ptr }
%struct.dt_lua_state_t = type { i32 }
%struct.dt_sys_resources_t = type { i64, i64, ptr, ptr, i32 }
%struct.dt_backthumb_t = type { double, double, i32, i32, i32, i32 }
%struct.dt_gimp_t = type { i32, ptr, ptr, i32, i32 }

@darktable = external global %struct.darktable_t, align 8
@.str.2 = private unnamed_addr constant [41 x i8] c"[sql] %s:%d, function %s(): prepare \22%s\22\00", align 1
@.str.3 = private unnamed_addr constant [115 x i8] c"generated/home/dtcxzyw/WorkSpace/Projects/compilers/llvm-opt-benchmark/bench/darktable/darktable/src/common/film.c\00", align 1
@stderr = external global ptr, align 8
@.str.5 = private unnamed_addr constant [53 x i8] c"sqlite3 error: %s:%d, function %s(), query \22%s\22: %s\0A\00", align 1
@.str.6 = private unnamed_addr constant [41 x i8] c"sqlite3 error: %s:%d, function %s(): %s\0A\00", align 1
@.str.21 = private unnamed_addr constant [46 x i8] c"SELECT id FROM main.images WHERE film_id = ?1\00", align 1
@__FUNCTION__.dt_film_get_image_ids = private unnamed_addr constant [22 x i8] c"dt_film_get_image_ids\00", align 1

; Function Attrs: nounwind uwtable
define ptr @dt_film_get_image_ids(i32 noundef %0) #0 {
  %2 = alloca i32, align 4
  %3 = alloca ptr, align 8
  %4 = alloca ptr, align 8
  %5 = alloca i32, align 4
  %6 = alloca i32, align 4
  %7 = alloca i32, align 4
  store i32 %0, ptr %2, align 4, !tbaa !24
  call void @llvm.lifetime.start.p0(i64 8, ptr %3) #8
  store ptr null, ptr %3, align 8, !tbaa !80
  call void @llvm.lifetime.start.p0(i64 8, ptr %4) #8
  br label %8

8:                                                ; preds = %1
  br label %9

9:                                                ; preds = %8
  %10 = load i32, ptr getelementptr inbounds nuw (%struct.darktable_t, ptr @darktable, i32 0, i32 2), align 8, !tbaa !25
  %11 = and i32 256, %10
  %12 = icmp ne i32 %11, 0
  br i1 %12, label %13, label %19

13:                                               ; preds = %9
  %14 = load i32, ptr getelementptr inbounds nuw (%struct.darktable_t, ptr @darktable, i32 0, i32 2), align 8, !tbaa !25
  %15 = xor i32 %14, -1
  %16 = and i32 0, %15
  %17 = icmp ne i32 %16, 0
  br i1 %17, label %19, label %18

18:                                               ; preds = %13
  call void (ptr, ...) @dt_print_ext(ptr noundef @.str.2, ptr noundef @.str.3, i32 noundef 514, ptr noundef @__FUNCTION__.dt_film_get_image_ids, ptr noundef @.str.21)
  br label %19

19:                                               ; preds = %18, %13, %9
  br label %20

20:                                               ; preds = %19
  br label %21

21:                                               ; preds = %20
  call void @llvm.lifetime.start.p0(i64 4, ptr %5) #8
  %22 = load ptr, ptr getelementptr inbounds nuw (%struct.darktable_t, ptr @darktable, i32 0, i32 18), align 8, !tbaa !62
  %23 = call ptr @dt_database_get(ptr noundef %22)
  %24 = call i32 @sqlite3_prepare_v2(ptr noundef %23, ptr noundef @.str.21, i32 noundef -1, ptr noundef %4, ptr noundef null)
  store i32 %24, ptr %5, align 4, !tbaa !24
  %25 = load i32, ptr %5, align 4, !tbaa !24
  %26 = icmp ne i32 %25, 0
  br i1 %26, label %27, label %33

27:                                               ; preds = %21
  %28 = load ptr, ptr @stderr, align 8, !tbaa !63
  %29 = load ptr, ptr getelementptr inbounds nuw (%struct.darktable_t, ptr @darktable, i32 0, i32 18), align 8, !tbaa !62
  %30 = call ptr @dt_database_get(ptr noundef %29)
  %31 = call ptr @sqlite3_errmsg(ptr noundef %30)
  %32 = call i32 (ptr, ptr, ...) @fprintf(ptr noundef %28, ptr noundef @.str.5, ptr noundef @.str.3, i32 noundef 514, ptr noundef @__FUNCTION__.dt_film_get_image_ids, ptr noundef @.str.21, ptr noundef %31) #8
  br label %33

33:                                               ; preds = %27, %21
  call void @llvm.lifetime.end.p0(i64 4, ptr %5) #8
  br label %34

34:                                               ; preds = %33
  br label %35

35:                                               ; preds = %34
  call void @llvm.lifetime.start.p0(i64 4, ptr %6) #8
  %36 = load ptr, ptr %4, align 8, !tbaa !65
  %37 = load i32, ptr %2, align 4, !tbaa !24
  %38 = call i32 @sqlite3_bind_int(ptr noundef %36, i32 noundef 1, i32 noundef %37)
  store i32 %38, ptr %6, align 4, !tbaa !24
  %39 = load i32, ptr %6, align 4, !tbaa !24
  %40 = icmp ne i32 %39, 0
  br i1 %40, label %41, label %47

41:                                               ; preds = %35
  %42 = load ptr, ptr @stderr, align 8, !tbaa !63
  %43 = load ptr, ptr getelementptr inbounds nuw (%struct.darktable_t, ptr @darktable, i32 0, i32 18), align 8, !tbaa !62
  %44 = call ptr @dt_database_get(ptr noundef %43)
  %45 = call ptr @sqlite3_errmsg(ptr noundef %44)
  %46 = call i32 (ptr, ptr, ...) @fprintf(ptr noundef %42, ptr noundef @.str.6, ptr noundef @.str.3, i32 noundef 515, ptr noundef @__FUNCTION__.dt_film_get_image_ids, ptr noundef %45) #8
  br label %47

47:                                               ; preds = %41, %35
  call void @llvm.lifetime.end.p0(i64 4, ptr %6) #8
  br label %48

48:                                               ; preds = %52, %47
  %49 = load ptr, ptr %4, align 8, !tbaa !65
  %50 = call i32 @sqlite3_step(ptr noundef %49)
  %51 = icmp eq i32 %50, 100
  br i1 %51, label %52, label %60

52:                                               ; preds = %48
  call void @llvm.lifetime.start.p0(i64 4, ptr %7) #8
  %53 = load ptr, ptr %4, align 8, !tbaa !65
  %54 = call i32 @sqlite3_column_int(ptr noundef %53, i32 noundef 0)
  store i32 %54, ptr %7, align 4, !tbaa !24
  %55 = load ptr, ptr %3, align 8, !tbaa !80
  %56 = load i32, ptr %7, align 4, !tbaa !24
  %57 = sext i32 %56 to i64
  %58 = inttoptr i64 %57 to ptr
  %59 = call ptr @g_list_prepend(ptr noundef %55, ptr noundef %58)
  store ptr %59, ptr %3, align 8, !tbaa !80
  call void @llvm.lifetime.end.p0(i64 4, ptr %7) #8
  br label %48

60:                                               ; preds = %48
  %61 = load ptr, ptr %4, align 8, !tbaa !65
  %62 = call i32 @sqlite3_finalize(ptr noundef %61)
  %63 = load ptr, ptr %3, align 8, !tbaa !80
  %64 = call ptr @g_list_reverse(ptr noundef %63)
  call void @llvm.lifetime.end.p0(i64 8, ptr %4) #8
  call void @llvm.lifetime.end.p0(i64 8, ptr %3) #8
  ret ptr %64
}