; Function Attrs: nounwind uwtable
define ptr @dt_film_get_image_ids(i32 noundef %0) local_unnamed_addr #0 {
  %2 = alloca ptr, align 8
  call void @llvm.lifetime.start.p0(i64 8, ptr nonnull %2) #11
  %3 = load i32, ptr getelementptr inbounds nuw (i8, ptr @darktable, i64 8), align 8, !tbaa !16
  %4 = and i32 %3, 256
  %.not = icmp eq i32 %4, 0
  br i1 %.not, label %6, label %5

5:                                                ; preds = %1
  tail call void (ptr, ...) @dt_print_ext(ptr noundef nonnull @.str.2, ptr noundef nonnull @.str.3, i32 noundef 514, ptr noundef nonnull @__FUNCTION__.dt_film_get_image_ids, ptr noundef nonnull @.str.21) #11
  br label %6

6:                                                ; preds = %5, %1
  %7 = load ptr, ptr getelementptr inbounds nuw (i8, ptr @darktable, i64 136), align 8, !tbaa !53
  %8 = tail call ptr @dt_database_get(ptr noundef %7) #11
  %9 = call i32 @sqlite3_prepare_v2(ptr noundef %8, ptr noundef nonnull @.str.21, i32 noundef -1, ptr noundef nonnull %2, ptr noundef null) #11
  %.not5 = icmp eq i32 %9, 0
  br i1 %.not5, label %16, label %10

10:                                               ; preds = %6
  %11 = load ptr, ptr @stderr, align 8, !tbaa !54
  %12 = load ptr, ptr getelementptr inbounds nuw (i8, ptr @darktable, i64 136), align 8, !tbaa !53
  %13 = call ptr @dt_database_get(ptr noundef %12) #11
  %14 = call ptr @sqlite3_errmsg(ptr noundef %13) #11
  %15 = call i32 (ptr, ptr, ...) @fprintf(ptr noundef %11, ptr noundef nonnull @.str.5, ptr noundef nonnull @.str.3, i32 noundef 514, ptr noundef nonnull @__FUNCTION__.dt_film_get_image_ids, ptr noundef nonnull @.str.21, ptr noundef %14) #12
  br label %16

16:                                               ; preds = %10, %6
  %17 = load ptr, ptr %2, align 8, !tbaa !56
  %18 = call i32 @sqlite3_bind_int(ptr noundef %17, i32 noundef 1, i32 noundef %0) #11
  %.not6 = icmp eq i32 %18, 0
  br i1 %.not6, label %25, label %19

19:                                               ; preds = %16
  %20 = load ptr, ptr @stderr, align 8, !tbaa !54
  %21 = load ptr, ptr getelementptr inbounds nuw (i8, ptr @darktable, i64 136), align 8, !tbaa !53
  %22 = call ptr @dt_database_get(ptr noundef %21) #11
  %23 = call ptr @sqlite3_errmsg(ptr noundef %22) #11
  %24 = call i32 (ptr, ptr, ...) @fprintf(ptr noundef %20, ptr noundef nonnull @.str.6, ptr noundef nonnull @.str.3, i32 noundef 515, ptr noundef nonnull @__FUNCTION__.dt_film_get_image_ids, ptr noundef %23) #12
  br label %25

25:                                               ; preds = %19, %16
  %26 = load ptr, ptr %2, align 8, !tbaa !56
  %27 = call i32 @sqlite3_step(ptr noundef %26) #11
  %28 = icmp eq i32 %27, 100
  br i1 %28, label %.lr.ph, label %._crit_edge

.lr.ph:                                           ; preds = %25, %.lr.ph
  %.07 = phi ptr [ %33, %.lr.ph ], [ null, %25 ]
  %29 = load ptr, ptr %2, align 8, !tbaa !56
  %30 = call i32 @sqlite3_column_int(ptr noundef %29, i32 noundef 0) #11
  %31 = sext i32 %30 to i64
  %32 = inttoptr i64 %31 to ptr
  %33 = call ptr @g_list_prepend(ptr noundef %.07, ptr noundef %32) #11
  %34 = load ptr, ptr %2, align 8, !tbaa !56
  %35 = call i32 @sqlite3_step(ptr noundef %34) #11
  %36 = icmp eq i32 %35, 100
  br i1 %36, label %.lr.ph, label %._crit_edge

._crit_edge:                                      ; preds = %.lr.ph, %25
  %.0.lcssa = phi ptr [ null, %25 ], [ %33, %.lr.ph ]
  %37 = load ptr, ptr %2, align 8, !tbaa !56
  %38 = call i32 @sqlite3_finalize(ptr noundef %37) #11
  %39 = call ptr @g_list_reverse(ptr noundef %.0.lcssa) #11
  call void @llvm.lifetime.end.p0(i64 8, ptr nonnull %2) #11
  ret ptr %39
}